; Function Attrs: mustprogress uwtable
define noundef ptr @cvRetrieveFrame(ptr noundef %0, i32 noundef %1) local_unnamed_addr #3 {
  %.not = icmp eq ptr %0, null
  br i1 %.not, label %8, label %3

3:                                                ; preds = %2
  %4 = load ptr, ptr %0, align 8, !tbaa !30
  %5 = getelementptr inbounds nuw i8, ptr %4, i64 40
  %6 = load ptr, ptr %5, align 8
  %7 = tail call noundef ptr %6(ptr noundef nonnull align 8 dereferenceable(8) %0, i32 noundef %1)
  br label %8

8:                                                ; preds = %2, %3
  %9 = phi ptr [ %7, %3 ], [ null, %2 ]
  ret ptr %9
}